; Function Attrs: mustprogress nounwind uwtable
define hidden noundef ptr @_ZN11CompileTask8allocateEv() local_unnamed_addr #0 align 2 {
  %1 = load ptr, ptr @CompileTaskAlloc_lock, align 8
  %.not.i.i = icmp eq ptr %1, null
  br i1 %.not.i.i, label %_ZN11MutexLockerC2EP5MutexNS0_18SafepointCheckFlagE.exit, label %2

2:                                                ; preds = %0
  tail call void @_ZN5Mutex4lockEv(ptr noundef nonnull align 8 dereferenceable(104) %1) #9
  br label %_ZN11MutexLockerC2EP5MutexNS0_18SafepointCheckFlagE.exit

_ZN11MutexLockerC2EP5MutexNS0_18SafepointCheckFlagE.exit: ; preds = %0, %2
  %3 = load ptr, ptr @_ZN11CompileTask15_task_free_listE, align 8
  %.not = icmp eq ptr %3, null
  br i1 %.not, label %7, label %4

4:                                                ; preds = %_ZN11MutexLockerC2EP5MutexNS0_18SafepointCheckFlagE.exit
  %5 = getelementptr inbounds i8, ptr %3, i64 88
  %6 = load ptr, ptr %5, align 8
  store ptr %6, ptr @_ZN11CompileTask15_task_free_listE, align 8
  store ptr null, ptr %5, align 8
  br label %14

7:                                                ; preds = %_ZN11MutexLockerC2EP5MutexNS0_18SafepointCheckFlagE.exit
  %8 = tail call noundef ptr @_Z12AllocateHeapm8MEMFLAGSN17AllocFailStrategy13AllocFailEnumE(i64 noundef 176, i8 noundef zeroext 7, i32 noundef 0) #9
  %9 = getelementptr inbounds i8, ptr %8, i64 152
  store ptr null, ptr %9, align 8
  %10 = getelementptr inbounds i8, ptr %8, i64 160
  store i8 0, ptr %10, align 8
  %11 = tail call noundef ptr @_Z12AllocateHeapm8MEMFLAGSN17AllocFailStrategy13AllocFailEnumE(i64 noundef 104, i8 noundef zeroext 22, i32 noundef 0) #9
  tail call void @_ZN5MutexC2ENS_4RankEPKcb(ptr noundef nonnull align 8 dereferenceable(104) %11, i32 noundef 40, ptr noundef nonnull @.str.48, i1 noundef zeroext false) #9
  store ptr %11, ptr %8, align 8
  %12 = getelementptr inbounds i8, ptr %8, i64 88
  store ptr null, ptr %12, align 8
  %13 = getelementptr inbounds i8, ptr %8, i64 104
  store i8 1, ptr %13, align 8
  br label %14

14:                                               ; preds = %7, %4
  %.0 = phi ptr [ %3, %4 ], [ %8, %7 ]
  %15 = getelementptr inbounds i8, ptr %.0, i64 104
  store i8 0, ptr %15, align 8
  br i1 %.not.i.i, label %_ZN11MutexLockerD2Ev.exit, label %16

16:                                               ; preds = %14
  tail call void @_ZN5Mutex6unlockEv(ptr noundef nonnull align 8 dereferenceable(104) %1) #9
  br label %_ZN11MutexLockerD2Ev.exit

_ZN11MutexLockerD2Ev.exit:                        ; preds = %14, %16
  ret ptr %.0
}